target datalayout = "e-m:e-p270:32:32-p271:32:32-p272:64:64-i64:64-i128:128-f80:128-n8:16:32:64-S128"
target triple = "x86_64-pc-linux-gnu"

%struct.gvpr_state_t = type { ptr, ptr, ptr, ptr, %struct.options }
%struct.options = type { ptr, ptr, ptr, i32, %struct.compflags_t, i32, ptr, i32, ptr, i32, i32 }
%struct.compflags_t = type { i8 }

@stdout = external global ptr, align 8

; Function Attrs: nounwind uwtable
define internal void @freeOpts(ptr noundef byval(%struct.options) align 8 %0) #0 {
  %2 = alloca i32, align 4
  %3 = getelementptr inbounds nuw %struct.options, ptr %0, i32 0, i32 1
  %4 = load ptr, ptr %3, align 8, !tbaa !84
  %5 = icmp ne ptr %4, null
  br i1 %5, label %6, label %15

6:                                                ; preds = %1
  %7 = getelementptr inbounds nuw %struct.options, ptr %0, i32 0, i32 1
  %8 = load ptr, ptr %7, align 8, !tbaa !84
  %9 = load ptr, ptr @stdout, align 8, !tbaa !11
  %10 = icmp ne ptr %8, %9
  br i1 %10, label %11, label %15

11:                                               ; preds = %6
  %12 = getelementptr inbounds nuw %struct.options, ptr %0, i32 0, i32 1
  %13 = load ptr, ptr %12, align 8, !tbaa !84
  %14 = call i32 @fclose(ptr noundef %13)
  br label %15

15:                                               ; preds = %11, %6, %1
  %16 = getelementptr inbounds nuw %struct.options, ptr %0, i32 0, i32 6
  %17 = load ptr, ptr %16, align 8, !tbaa !85
  call void @free(ptr noundef %17) #14
  %18 = getelementptr inbounds nuw %struct.options, ptr %0, i32 0, i32 3
  %19 = load i32, ptr %18, align 8, !tbaa !86
  %20 = icmp ne i32 %19, 0
  br i1 %20, label %21, label %24

21:                                               ; preds = %15
  %22 = getelementptr inbounds nuw %struct.options, ptr %0, i32 0, i32 2
  %23 = load ptr, ptr %22, align 8, !tbaa !87
  call void @free(ptr noundef %23) #14
  br label %24

24:                                               ; preds = %21, %15
  call void @llvm.lifetime.start.p0(i64 4, ptr %2) #14
  store i32 0, ptr %2, align 4, !tbaa !3
  br label %25

25:                                               ; preds = %38, %24
  %26 = load i32, ptr %2, align 4, !tbaa !3
  %27 = getelementptr inbounds nuw %struct.options, ptr %0, i32 0, i32 7
  %28 = load i32, ptr %27, align 8, !tbaa !88
  %29 = icmp slt i32 %26, %28
  br i1 %29, label %31, label %30

30:                                               ; preds = %25
  call void @llvm.lifetime.end.p0(i64 4, ptr %2) #14
  br label %41

31:                                               ; preds = %25
  %32 = getelementptr inbounds nuw %struct.options, ptr %0, i32 0, i32 8
  %33 = load ptr, ptr %32, align 8, !tbaa !89
  %34 = load i32, ptr %2, align 4, !tbaa !3
  %35 = sext i32 %34 to i64
  %36 = getelementptr inbounds ptr, ptr %33, i64 %35
  %37 = load ptr, ptr %36, align 8, !tbaa !24
  call void @free(ptr noundef %37) #14
  br label %38

38:                                               ; preds = %31
  %39 = load i32, ptr %2, align 4, !tbaa !3
  %40 = add nsw i32 %39, 1
  store i32 %40, ptr %2, align 4, !tbaa !3
  br label %25, !llvm.loop !90

41:                                               ; preds = %30
  %42 = getelementptr inbounds nuw %struct.options, ptr %0, i32 0, i32 8
  %43 = load ptr, ptr %42, align 8, !tbaa !89
  call void @free(ptr noundef %43) #14
  ret void
}

; Function Attrs: nounwind uwtable
define i32 @gvpr(i32 noundef %0, ptr noundef %1, ptr noundef %2) #0 {
  %4 = alloca i32, align 4
  %5 = alloca ptr, align 8
  %6 = alloca ptr, align 8
  %7 = alloca %struct.gvpr_state_t, align 8
  %8 = alloca i32, align 4
  store i32 %0, ptr %4, align 4, !tbaa !3
  store ptr %1, ptr %5, align 8, !tbaa !7
  store ptr %2, ptr %6, align 8, !tbaa !10
  call void @llvm.lifetime.start.p0(i64 104, ptr %7) #14
  call void @llvm.memset.p0.i64(ptr align 8 %7, i8 0, i64 104, i1 false)
  %9 = load ptr, ptr @stdout, align 8, !tbaa !11
  %10 = getelementptr inbounds nuw %struct.gvpr_state_t, ptr %7, i32 0, i32 4
  %11 = getelementptr inbounds nuw %struct.options, ptr %10, i32 0, i32 1
  store ptr %9, ptr %11, align 8, !tbaa !13
  call void @llvm.lifetime.start.p0(i64 4, ptr %8) #14
  %12 = load i32, ptr %4, align 4, !tbaa !3
  %13 = load ptr, ptr %5, align 8, !tbaa !7
  %14 = load ptr, ptr %6, align 8, !tbaa !10
  %15 = call i32 @gvpr_core(i32 noundef %12, ptr noundef %13, ptr noundef %14, ptr noundef %7)
  store i32 %15, ptr %8, align 4, !tbaa !3
  %16 = getelementptr inbounds nuw %struct.gvpr_state_t, ptr %7, i32 0, i32 0
  %17 = load ptr, ptr %16, align 8, !tbaa !19
  call void @freeParseProg(ptr noundef %17)
  %18 = getelementptr inbounds nuw %struct.gvpr_state_t, ptr %7, i32 0, i32 2
  %19 = load ptr, ptr %18, align 8, !tbaa !20
  call void @freeCompileProg(ptr noundef %19)
  %20 = getelementptr inbounds nuw %struct.gvpr_state_t, ptr %7, i32 0, i32 3
  %21 = load ptr, ptr %20, align 8, !tbaa !21
  call void @closeGPRState(ptr noundef %21)
  %22 = getelementptr inbounds nuw %struct.gvpr_state_t, ptr %7, i32 0, i32 1
  %23 = load ptr, ptr %22, align 8, !tbaa !22
  %24 = icmp ne ptr %23, null
  br i1 %24, label %25, label %28

25:                                               ; preds = %3
  %26 = getelementptr inbounds nuw %struct.gvpr_state_t, ptr %7, i32 0, i32 1
  %27 = load ptr, ptr %26, align 8, !tbaa !22
  call void @closeIngraph(ptr noundef %27)
  br label %28

28:                                               ; preds = %25, %3
  %29 = getelementptr inbounds nuw %struct.gvpr_state_t, ptr %7, i32 0, i32 4
  call void @freeOpts(ptr noundef byval(%struct.options) align 8 %29)
  %30 = load i32, ptr %8, align 4, !tbaa !3
  call void @llvm.lifetime.end.p0(i64 4, ptr %8) #14
  call void @llvm.lifetime.end.p0(i64 104, ptr %7) #14
  ret i32 %30
}