; Function Attrs: nounwind uwtable
define i32 @gvpr(i32 noundef %0, ptr noundef readonly captures(none) %1, ptr noundef captures(address_is_null) %2) local_unnamed_addr #0 {
  %4 = alloca %struct.gvpr_state_t, align 8
  call void @llvm.lifetime.start.p0(i64 104, ptr nonnull %4) #24
  call void @llvm.memset.p0.i64(ptr noundef nonnull align 8 dereferenceable(104) %4, i8 0, i64 104, i1 false)
  %5 = load ptr, ptr @stdout, align 8, !tbaa !3
  %6 = getelementptr inbounds nuw i8, ptr %4, i64 40
  store ptr %5, ptr %6, align 8, !tbaa !8
  %7 = call fastcc i32 @gvpr_core(i32 noundef %0, ptr noundef %1, ptr noundef %2, ptr noundef %4)
  %8 = load ptr, ptr %4, align 8, !tbaa !16
  tail call void @freeParseProg(ptr noundef %8) #24
  %9 = getelementptr inbounds nuw i8, ptr %4, i64 16
  %10 = load ptr, ptr %9, align 8, !tbaa !17
  tail call void @freeCompileProg(ptr noundef %10) #24
  %11 = getelementptr inbounds nuw i8, ptr %4, i64 24
  %12 = load ptr, ptr %11, align 8, !tbaa !18
  tail call void @closeGPRState(ptr noundef %12) #24
  %13 = getelementptr inbounds nuw i8, ptr %4, i64 8
  %14 = load ptr, ptr %13, align 8, !tbaa !19
  %.not = icmp eq ptr %14, null
  br i1 %.not, label %16, label %15

15:                                               ; preds = %3
  tail call void @closeIngraph(ptr noundef nonnull %14) #24
  br label %16

16:                                               ; preds = %15, %3
  %.sroa.3.0.copyload = load ptr, ptr %6, align 8
  %.sroa.4.0..sroa_idx = getelementptr inbounds nuw i8, ptr %4, i64 48
  %.sroa.4.0.copyload = load ptr, ptr %.sroa.4.0..sroa_idx, align 8
  %.sroa.5.0..sroa_idx = getelementptr inbounds nuw i8, ptr %4, i64 56
  %.sroa.5.0.copyload = load i32, ptr %.sroa.5.0..sroa_idx, align 8
  %.sroa.63.0..sroa_idx = getelementptr inbounds nuw i8, ptr %4, i64 72
  %.sroa.63.0.copyload = load ptr, ptr %.sroa.63.0..sroa_idx, align 8
  %.sroa.7.0..sroa_idx = getelementptr inbounds nuw i8, ptr %4, i64 80
  %.sroa.7.0.copyload = load i32, ptr %.sroa.7.0..sroa_idx, align 8
  %.sroa.84.0..sroa_idx = getelementptr inbounds nuw i8, ptr %4, i64 88
  %.sroa.84.0.copyload = load ptr, ptr %.sroa.84.0..sroa_idx, align 8
  %.not.i = icmp eq ptr %.sroa.3.0.copyload, null
  %17 = load ptr, ptr @stdout, align 8
  %.not4.i = icmp eq ptr %.sroa.3.0.copyload, %17
  %or.cond.i = select i1 %.not.i, i1 true, i1 %.not4.i
  br i1 %or.cond.i, label %20, label %18

18:                                               ; preds = %16
  %19 = tail call i32 @fclose(ptr noundef nonnull %.sroa.3.0.copyload)
  br label %20

20:                                               ; preds = %18, %16
  tail call void @free(ptr noundef %.sroa.63.0.copyload) #24
  %.not5.i = icmp eq i32 %.sroa.5.0.copyload, 0
  br i1 %.not5.i, label %22, label %21

21:                                               ; preds = %20
  tail call void @free(ptr noundef %.sroa.4.0.copyload) #24
  br label %22

22:                                               ; preds = %21, %20
  %23 = icmp sgt i32 %.sroa.7.0.copyload, 0
  br i1 %23, label %.lr.ph.i, label %freeOpts.exit

.lr.ph.i:                                         ; preds = %22
  %wide.trip.count.i = zext nneg i32 %.sroa.7.0.copyload to i64
  br label %24

24:                                               ; preds = %24, %.lr.ph.i
  %indvars.iv.i = phi i64 [ 0, %.lr.ph.i ], [ %indvars.iv.next.i, %24 ]
  %25 = getelementptr inbounds nuw ptr, ptr %.sroa.84.0.copyload, i64 %indvars.iv.i
  %26 = load ptr, ptr %25, align 8, !tbaa !20
  tail call void @free(ptr noundef %26) #24
  %indvars.iv.next.i = add nuw nsw i64 %indvars.iv.i, 1
  %exitcond.not.i = icmp eq i64 %indvars.iv.next.i, %wide.trip.count.i
  br i1 %exitcond.not.i, label %freeOpts.exit, label %24, !llvm.loop !21

freeOpts.exit:                                    ; preds = %24, %22
  tail call void @free(ptr noundef %.sroa.84.0.copyload) #24
  call void @llvm.lifetime.end.p0(i64 104, ptr nonnull %4) #24
  ret i32 %7
}